Certificate:
    Data:
        Version: 3 (0x2)
        Serial Number: 1 (0x1)
        Signature Algorithm: sha1WithRSAEncryption
        Issuer: CN=default
        Validity
            Not Before: Jul  9 12:39:42 2012 GMT
            Not After : Jul  7 12:39:42 2022 GMT
        Subject: CN=server
        Subject Public Key Info:
            Public Key Algorithm: rsaEncryption
            RSA Public Key: (1024 bit)
                Modulus (1024 bit):
                    00:b8:40:26:4e:c3:f6:61:b5:16:71:0a:8c:63:ce:
                    8f:7e:70:58:e9:8a:b9:d5:3d:bd:80:f0:81:b6:f8:
                    c5:df:2e:ea:07:0a:78:b6:27:a1:dc:c3:e8:bc:29:
                    f6:63:ea:92:58:9f:b3:a4:41:45:00:a0:9a:4b:db:
                    8f:de:7a:1f:83:62:a1:e2:1e:d0:7b:2c:73:6b:0d:
                    8f:b1:c3:ed:0b:6f:f5:fa:e0:6c:a5:18:65:fc:d5:
                    f8:da:67:2b:5d:a6:d8:87:33:c0:8e:9e:85:16:f0:
                    71:68:76:d1:11:fe:a2:cb:69:d9:60:53:b9:a3:cf:
                    10:a0:eb:a6:37:42:64:62:05
                Exponent: 65537 (0x10001)
        X509v3 extensions:
            X509v3 Basic Constraints: 
                CA:FALSE
            X509v3 Subject Key Identifier: 
                1A:2B:5E:5D:42:B3:DA:25:88:19:53:23:C2:02:EA:E4:CD:D8:BF:C0
            X509v3 Authority Key Identifier: 
                keyid:7B:E1:6A:B6:99:12:33:D0:07:7F:08:4D:BA:D5:B8:9E:71:1D:E6:0D
                DirName:/CN=default
                serial:93:F2:E9:B7:43:01:80:88

            X509v3 Extended Key Usage: 
                TLS Web Client Authentication
            X509v3 Key Usage: 
                Digital Signature
    Signature Algorithm: sha1WithRSAEncryption
        56:9f:b5:af:a9:ff:f1:22:d2:59:42:51:ff:97:e1:08:da:e0:
        6a:df:4a:64:d7:0f:ff:d5:90:bb:1e:89:c3:e9:d4:10:be:3e:
        a5:33:bd:51:62:91:18:e9:59:33:39:6a:ff:50:d4:8e:b6:25:
        8a:f5:8e:67:5f:16:57:97:2b:66:53:f7:b2:6a:89:74:ca:03:
        66:a6:8e:8d:6c:9c:1c:eb:3f:6c:ca:03:0f:24:90:14:b0:a8:
        83:52:da:be:2e:92:aa:31:0c:c7:92:1b:15:d8:e5:dd:76:ff:
        84:fe:97:a8:1a:7d:d2:97:49:e1:22:64:e7:0f:70:ab:49:4f:
        95:95
-----BEGIN CERTIFICATE-----
MIICLTCCAZagAwIBAgIBATANBgkqhkiG9w0BAQUFADASMRAwDgYDVQQDEwdkZWZh
dWx0MB4XDTEyMDcwOTEyMzk0MloXDTIyMDcwNzEyMzk0MlowETEPMA0GA1UEAxMG
c2VydmVyMIGfMA0GCSqGSIb3DQEBAQUAA4GNADCBiQKBgQC4QCZOw/ZhtRZxCoxj
zo9+cFjpirnVPb2A8IG2+MXfLuoHCni2J6Hcw+i8KfZj6pJYn7OkQUUAoJpL24/e
eh+DYqHiHtB7LHNrDY+xw+0Lb/X64GylGGX81fjaZytdptiHM8COnoUW8HFodtER
/qLLadlgU7mjzxCg66Y3QmRiBQIDAQABo4GTMIGQMAkGA1UdEwQCMAAwHQYDVR0O
BBYEFBorXl1Cs9oliBlTI8IC6uTN2L/AMEIGA1UdIwQ7MDmAFHvharaZEjPQB38I
TbrVuJ5xHeYNoRakFDASMRAwDgYDVQQDEwdkZWZhdWx0ggkAk/Lpt0MBgIgwEwYD
VR0lBAwwCgYIKwYBBQUHAwIwCwYDVR0PBAQDAgeAMA0GCSqGSIb3DQEBBQUAA4GB
AFafta+p//Ei0llCUf+X4Qja4GrfSmTXD//VkLseicPp1BC+PqUzvVFikRjpWTM5
av9Q1I62JYr1jmdfFleXK2ZT97JqiXTKA2amjo1snBzrP2zKAw8kkBSwqINS2r4u
kqoxDMeSGxXY5d12/4T+l6gafdKXSeEiZOcPcKtJT5WV
-----END CERTIFICATE-----
-----BEGIN RSA PRIVATE KEY-----
MIICXgIBAAKBgQC4QCZOw/ZhtRZxCoxjzo9+cFjpirnVPb2A8IG2+MXfLuoHCni2
J6Hcw+i8KfZj6pJYn7OkQUUAoJpL24/eeh+DYqHiHtB7LHNrDY+xw+0Lb/X64Gyl
GGX81fjaZytdptiHM8COnoUW8HFodtER/qLLadlgU7mjzxCg66Y3QmRiBQIDAQAB
AoGAbKV/MVEClwkGa6/xquTh3of3Ffe0rxaSCVdI1hEJ9Rof6/jzx03Fd32aXmJM
JQzsMRAzCPdn7f/GHFcjFehjbcD4GATnHVZ5E6a4noVcMRlw+YioDAodIm0QvpcP
96OqAH2u/MaI8QkwM9EvkxziHdk77TL0F/+xUUUkKdURoqECQQDZTrJXStE23/rG
paDUp5+259EGvjya0J9U9Tj+jR9CRWCECi/PTznOfDXl9xACBoDnYbwi84ka08G+
tFmbzj6NAkEA2Q6oQ5bztiNOd6el9sWbRndHlvaMxyjXOdxALwCEyUShjR3Y2psz
OqibLQGKS0YVNsj5ECqmWQ0BDLo6RzfvWQJBAKdhppz2VBAgldlM2oTyWGNaS/cV
sTjOWOvntu7bZKh3J9CMyCa2r6AMrLdlhj8JI2EWNwP08jZnxWRPJnaMdkECQQDO
aZzkIcIDnFG7gidWpBaEjVv8GNxJbPI3qNc0m2arS+PhodeeE+dEyiA/TW6pJK15
2ubXU+e7WZ188AAJyAyJAkEA1T+izjhFT/mA26OL5l5S9YTcyqBYy+4Fj9tQ1jBk
AMhV57vIinBxOi0wNIYHBvDR4S4Ort8JpksCKMgLzX1VZw==
-----END RSA PRIVATE KEY-----
-----BEGIN CERTIFICATE-----
MIIChjCCAe+gAwIBAgIJAN9bfYOvlR1tMA0GCSqGSIb3DQEBBQUAMDcxJDAiBgNV
BAMTG1JDUyBDZXJ0aWZpY2F0aW9uIEF1dGhvcml0eTEPMA0GA1UEChMGSFQgc3Js
MB4XDTEyMDUwNzA3MTcxM1oXDTIyMDUwNTA3MTcxM1owNzEkMCIGA1UEAxMbUkNT
IENlcnRpZmljYXRpb24gQXV0aG9yaXR5MQ8wDQYDVQQKEwZIVCBzcmwwgZ8wDQYJ
KoZIhvcNAQEBBQADgY0AMIGJAoGBALWf49XMhLuTwY4RJHpIn+w9JZ2siUGjHwWl
fjX6UsC9SiPHPAmueiq+4IgWB+hn9l3I9NpNzF6qPks2028DovW+mhfhzVJ+l+P7
/Ooq6mjjbhiw/oIPImBLUwX0IVRrf9+F3h6kvZijBipsTi8aTg7Zc9KYE1sBBInB
0QPiXEzLAgMBAAGjgZkwgZYwDAYDVR0TBAUwAwEB/zAdBgNVHQ4EFgQU/Ues2s8L
V6jA+qhNT+tr2BmSM6MwZwYDVR0jBGAwXoAU/Ues2s8LV6jA+qhNT+tr2BmSM6Oh
O6Q5MDcxJDAiBgNVBAMTG1JDUyBDZXJ0aWZpY2F0aW9uIEF1dGhvcml0eTEPMA0G
A1UEChMGSFQgc3JsggkA31t9g6+VHW0wDQYJKoZIhvcNAQEFBQADgYEAI2yuvaNE
TBfJ/kcuXhIyhKNS8zCrjBUqAyIdjk06rHHt1opyKZpEYvvdSMfpA4jQm89rfaPL
peo5PwZas2qluq6IwACYUj1Gm5hiPJez3ojw5Cs1/GcOILW40S070wTIQFKCNf34
ST8hdKsjNfxKJwKZFulZ7Jrd9pCp4cdAFjQ=
-----END CERTIFICATE-----
