Certificate:
    Data:
        Version: 3 (0x2)
        Serial Number: 2 (0x2)
        Signature Algorithm: sha1WithRSAEncryption
        Issuer: CN=RCS Certification Authority, O=HT srl
        Validity
            Not Before: May  7 07:17:14 2012 GMT
            Not After : May  5 07:17:14 2022 GMT
        Subject: CN=collector
        Subject Public Key Info:
            Public Key Algorithm: rsaEncryption
            RSA Public Key: (1024 bit)
                Modulus (1024 bit):
                    00:c8:a2:60:75:ce:09:9d:af:51:92:01:4c:01:15:
                    f9:c3:8b:bf:6f:ce:7b:46:6a:79:e8:da:18:4b:11:
                    d5:00:c7:b5:7e:dd:ae:af:e1:64:74:e3:a9:d0:2e:
                    4a:52:6b:97:e2:31:8e:3d:f6:1a:c8:93:58:a1:00:
                    27:0a:3b:ad:a5:74:38:97:d2:25:f7:43:5e:a0:83:
                    1f:b4:d3:9c:d5:c4:20:2c:60:98:bc:f8:ec:e4:fd:
                    a7:de:11:5f:2c:f7:1f:e4:19:cf:c0:95:21:bb:26:
                    c5:09:5b:8e:6f:32:6d:ea:b1:33:8c:2d:53:44:e8:
                    ea:ee:75:36:6c:e6:c5:42:6b
                Exponent: 65537 (0x10001)
        X509v3 extensions:
            X509v3 Basic Constraints: 
                CA:FALSE
            X509v3 Subject Key Identifier: 
                CE:AA:0A:D3:BB:82:C7:FF:46:03:7F:7A:02:74:7C:B1:87:78:C7:55
            X509v3 Authority Key Identifier: 
                keyid:FD:47:AC:DA:CF:0B:57:A8:C0:FA:A8:4D:4F:EB:6B:D8:19:92:33:A3
                DirName:/CN=RCS Certification Authority/O=HT srl
                serial:DF:5B:7D:83:AF:95:1D:6D

            X509v3 Extended Key Usage: 
                TLS Web Client Authentication
            X509v3 Key Usage: 
                Digital Signature
    Signature Algorithm: sha1WithRSAEncryption
        30:a7:3f:32:59:1b:31:7f:2d:53:28:ac:fa:4e:1a:cf:61:f2:
        9d:96:66:0a:b3:f5:1a:f6:0f:0a:cf:ca:f8:d6:66:c8:4e:1f:
        f4:9b:7b:f8:cb:fb:98:34:84:18:6d:e8:e2:f3:12:70:74:e2:
        1c:6c:cc:cd:3d:fe:a4:57:4a:e7:a5:32:a8:86:84:5e:de:08:
        98:b9:87:3a:b5:fa:2a:be:81:6e:91:4d:56:dd:a5:72:1a:47:
        46:b3:bf:bd:3b:76:65:f2:cf:0a:1f:6a:0f:f8:a5:63:3e:88:
        2b:0a:94:f3:b7:35:32:23:17:93:0f:66:9f:83:e2:65:45:04:
        d1:65
-----BEGIN CERTIFICATE-----
MIICejCCAeOgAwIBAgIBAjANBgkqhkiG9w0BAQUFADA3MSQwIgYDVQQDExtSQ1Mg
Q2VydGlmaWNhdGlvbiBBdXRob3JpdHkxDzANBgNVBAoTBkhUIHNybDAeFw0xMjA1
MDcwNzE3MTRaFw0yMjA1MDUwNzE3MTRaMBQxEjAQBgNVBAMTCWNvbGxlY3RvcjCB
nzANBgkqhkiG9w0BAQEFAAOBjQAwgYkCgYEAyKJgdc4Jna9RkgFMARX5w4u/b857
Rmp56NoYSxHVAMe1ft2ur+FkdOOp0C5KUmuX4jGOPfYayJNYoQAnCjutpXQ4l9Il
90NeoIMftNOc1cQgLGCYvPjs5P2n3hFfLPcf5BnPwJUhuybFCVuObzJt6rEzjC1T
ROjq7nU2bObFQmsCAwEAAaOBuDCBtTAJBgNVHRMEAjAAMB0GA1UdDgQWBBTOqgrT
u4LH/0YDf3oCdHyxh3jHVTBnBgNVHSMEYDBegBT9R6zazwtXqMD6qE1P62vYGZIz
o6E7pDkwNzEkMCIGA1UEAxMbUkNTIENlcnRpZmljYXRpb24gQXV0aG9yaXR5MQ8w
DQYDVQQKEwZIVCBzcmyCCQDfW32Dr5UdbTATBgNVHSUEDDAKBggrBgEFBQcDAjAL
BgNVHQ8EBAMCB4AwDQYJKoZIhvcNAQEFBQADgYEAMKc/MlkbMX8tUyis+k4az2Hy
nZZmCrP1GvYPCs/K+NZmyE4f9Jt7+Mv7mDSEGG3o4vMScHTiHGzMzT3+pFdK56Uy
qIaEXt4ImLmHOrX6Kr6BbpFNVt2lchpHRrO/vTt2ZfLPCh9qD/ilYz6IKwqU87c1
MiMXkw9mn4PiZUUE0WU=
-----END CERTIFICATE-----
-----BEGIN RSA PRIVATE KEY-----
MIICXQIBAAKBgQDIomB1zgmdr1GSAUwBFfnDi79vzntGanno2hhLEdUAx7V+3a6v
4WR046nQLkpSa5fiMY499hrIk1ihACcKO62ldDiX0iX3Q16ggx+005zVxCAsYJi8
+Ozk/afeEV8s9x/kGc/AlSG7JsUJW45vMm3qsTOMLVNE6OrudTZs5sVCawIDAQAB
AoGBAIZmr/N6qFpnXV9PWxjHHd9uuDkvusj6/tuLbgar1WKGZgCshB7yABeFgvYg
bE02IjK2O7EqMdr3ScHglkZ2n+UsIDNl7zuESvtuj8/Yq4vAenG+BOFkmFqlJEnW
TwPCFJ24y4WN6r48b4L/zKedt5kidadJBbXY46aZvv55r33hAkEA7qw6ri5RI9P4
uP3rkn1ab8WjLlv7gKzpi9IdpX4gf1PpclIGmAXc9px4ZTJk4/NiS5G/BKfX0dsG
j8Q8ZplYSQJBANczMkTZ+65PHuxLndgnX+xBJU48JxkxEgyZtU3AFDGWW1mjQ/sT
78ebaJpeeCzfU09IS2Bc9/A6vp137RCoDRMCQHNLufEoqMPBA1cCOsmCSqzR8ZlU
j/NCFHQZ5X5rpnE77PrvywWnV22+ep6QMJK5oRNWbctm9WgIAWxz5KW/kBkCQAK/
l6PDePBn+EgiSxjIn/P/fP97yzAKLWXVzLf6fQeJGQ+TAzpAre5JsNNP448HJyQ7
EyNe7Je32Flgf7mXu9sCQQCVOrKHBolaXpKHLf8siCvW1M+Y1EYpB1GPUUBeYJe5
NmWv9+0Dg+MV7mX3aC/3DLrpjhMmdxgdEW5EuG3CKqgA
-----END RSA PRIVATE KEY-----
-----BEGIN CERTIFICATE-----
MIIChjCCAe+gAwIBAgIJAN9bfYOvlR1tMA0GCSqGSIb3DQEBBQUAMDcxJDAiBgNV
BAMTG1JDUyBDZXJ0aWZpY2F0aW9uIEF1dGhvcml0eTEPMA0GA1UEChMGSFQgc3Js
MB4XDTEyMDUwNzA3MTcxM1oXDTIyMDUwNTA3MTcxM1owNzEkMCIGA1UEAxMbUkNT
IENlcnRpZmljYXRpb24gQXV0aG9yaXR5MQ8wDQYDVQQKEwZIVCBzcmwwgZ8wDQYJ
KoZIhvcNAQEBBQADgY0AMIGJAoGBALWf49XMhLuTwY4RJHpIn+w9JZ2siUGjHwWl
fjX6UsC9SiPHPAmueiq+4IgWB+hn9l3I9NpNzF6qPks2028DovW+mhfhzVJ+l+P7
/Ooq6mjjbhiw/oIPImBLUwX0IVRrf9+F3h6kvZijBipsTi8aTg7Zc9KYE1sBBInB
0QPiXEzLAgMBAAGjgZkwgZYwDAYDVR0TBAUwAwEB/zAdBgNVHQ4EFgQU/Ues2s8L
V6jA+qhNT+tr2BmSM6MwZwYDVR0jBGAwXoAU/Ues2s8LV6jA+qhNT+tr2BmSM6Oh
O6Q5MDcxJDAiBgNVBAMTG1JDUyBDZXJ0aWZpY2F0aW9uIEF1dGhvcml0eTEPMA0G
A1UEChMGSFQgc3JsggkA31t9g6+VHW0wDQYJKoZIhvcNAQEFBQADgYEAI2yuvaNE
TBfJ/kcuXhIyhKNS8zCrjBUqAyIdjk06rHHt1opyKZpEYvvdSMfpA4jQm89rfaPL
peo5PwZas2qluq6IwACYUj1Gm5hiPJez3ojw5Cs1/GcOILW40S070wTIQFKCNf34
ST8hdKsjNfxKJwKZFulZ7Jrd9pCp4cdAFjQ=
-----END CERTIFICATE-----
